; Function Attrs: mustprogress nounwind willreturn uwtable
define void @Aig_ManOrderStop(ptr noundef captures(none) initializes((224, 236)) %0) local_unnamed_addr #3 {
  %2 = getelementptr inbounds nuw i8, ptr %0, i64 216
  %3 = load ptr, ptr %2, align 8, !tbaa !24
  %.not = icmp eq ptr %3, null
  br i1 %.not, label %5, label %4

4:                                                ; preds = %1
  tail call void @free(ptr noundef nonnull %3) #11
  store ptr null, ptr %2, align 8, !tbaa !24
  br label %5

5:                                                ; preds = %1, %4
  %6 = getelementptr inbounds nuw i8, ptr %0, i64 224
  store i32 0, ptr %6, align 8, !tbaa !23
  %7 = getelementptr inbounds nuw i8, ptr %0, i64 232
  store i32 0, ptr %7, align 8, !tbaa !26
  %8 = getelementptr inbounds nuw i8, ptr %0, i64 228
  store i32 0, ptr %8, align 4, !tbaa !27
  ret void
}